target datalayout = "e-m:e-p270:32:32-p271:32:32-p272:64:64-i64:64-i128:128-f80:128-n8:16:32:64-S128"
target triple = "x86_64-pc-linux-gnu"

%"struct.rocksdb::PerfContext" = type <{ %"struct.rocksdb::PerfContextBase", ptr, i8, [7 x i8] }>
%"struct.rocksdb::PerfContextBase" = type { i64, i64, i64, i64, i64, i64, i64, i64, i64, i64, i64, i64, i64, i64, i64, i64, i64, i64, i64, i64, i64, i64, i64, i64, i64, i64, i64, i64, i64, i64, i64, i64, i64, i64, i64, i64, i64, i64, i64, i64, i64, i64, i64, i64, i64, i64, i64, i64, i64, i64, i64, i64, i64, i64, i64, i64, i64, i64, i64, i64, i64, i64, i64, i64, i64, i64, i64, i64, i64, i64, i64, i64, i64, i64, i64, i64, i64, i64, i64, i64, i64, i64, i64, i64, i64, i64, i64, i64, i64, i64, i64, i64, i64, i64, i64, i64, i64, i64, i64, i64, i64, i64, i64, i64, i64, i64, i64 }
%"class.rocksdb::PerfStepTimer" = type { i8, i8, i32, ptr, i64, ptr, ptr }
%"class.rocksdb::InstrumentedCondVar" = type <{ %"class.rocksdb::port::CondVar", ptr, ptr, i32, [4 x i8] }>
%"class.rocksdb::port::CondVar" = type { %union.pthread_cond_t, ptr }
%union.pthread_cond_t = type { %struct.__pthread_cond_s }
%struct.__pthread_cond_s = type { %union.__atomic_wide_counter, %union.__atomic_wide_counter, [2 x i32], [2 x i32], i32, i32, [2 x i32] }
%union.__atomic_wide_counter = type { i64 }
%"class.rocksdb::Statistics" = type <{ %"class.rocksdb::Customizable", %"struct.std::atomic", [7 x i8] }>
%"class.rocksdb::Customizable" = type { %"class.rocksdb::Configurable" }
%"class.rocksdb::Configurable" = type { ptr, %"class.std::vector" }
%"class.std::vector" = type { %"struct.std::_Vector_base" }
%"struct.std::_Vector_base" = type { %"struct.std::_Vector_base<rocksdb::Configurable::RegisteredOptions, std::allocator<rocksdb::Configurable::RegisteredOptions>>::_Vector_impl" }
%"struct.std::_Vector_base<rocksdb::Configurable::RegisteredOptions, std::allocator<rocksdb::Configurable::RegisteredOptions>>::_Vector_impl" = type { %"struct.std::_Vector_base<rocksdb::Configurable::RegisteredOptions, std::allocator<rocksdb::Configurable::RegisteredOptions>>::_Vector_impl_data" }
%"struct.std::_Vector_base<rocksdb::Configurable::RegisteredOptions, std::allocator<rocksdb::Configurable::RegisteredOptions>>::_Vector_impl_data" = type { ptr, ptr, ptr }
%"struct.std::atomic" = type { i8 }
%"class.std::__shared_ptr" = type { ptr, %"class.std::__shared_count" }
%"class.std::__shared_count" = type { ptr }

@_ZN7rocksdb12perf_contextE = external thread_local global %"struct.rocksdb::PerfContext", align 8
@_ZN7rocksdb10perf_levelE = external thread_local global i8, align 1

; Function Attrs: mustprogress nounwind uwtable
define linkonce_odr noundef zeroext i8 @_ZNKSt6atomicIN7rocksdb10StatsLevelEE4loadESt12memory_order(ptr noundef nonnull align 1 dereferenceable(1) %0, i32 noundef %1) #2 comdat align 2 {
  %3 = alloca ptr, align 8
  %4 = alloca i32, align 4
  %5 = alloca [1 x i8], align 1
  %6 = alloca ptr, align 8
  store ptr %0, ptr %3, align 8, !tbaa !81
  store i32 %1, ptr %4, align 4, !tbaa !83
  %7 = load ptr, ptr %3, align 8
  call void @llvm.lifetime.start.p0(i64 1, ptr %5) #5
  call void @llvm.lifetime.start.p0(i64 8, ptr %6) #5
  %8 = getelementptr inbounds [1 x i8], ptr %5, i64 0, i64 0
  store ptr %8, ptr %6, align 8, !tbaa !23
  %9 = getelementptr inbounds nuw %"struct.std::atomic", ptr %7, i32 0, i32 0
  %10 = load i32, ptr %4, align 4, !tbaa !83
  %11 = load ptr, ptr %6, align 8, !tbaa !23
  switch i32 %10, label %12 [
    i32 1, label %14
    i32 2, label %14
    i32 5, label %16
  ]

12:                                               ; preds = %2
  %13 = load atomic i8, ptr %9 monotonic, align 1
  store i8 %13, ptr %11, align 1
  br label %18

14:                                               ; preds = %2, %2
  %15 = load atomic i8, ptr %9 acquire, align 1
  store i8 %15, ptr %11, align 1
  br label %18

16:                                               ; preds = %2
  %17 = load atomic i8, ptr %9 seq_cst, align 1
  store i8 %17, ptr %11, align 1
  br label %18

18:                                               ; preds = %16, %14, %12
  %19 = load ptr, ptr %6, align 8, !tbaa !23
  %20 = load i8, ptr %19, align 1, !tbaa !85
  call void @llvm.lifetime.end.p0(i64 8, ptr %6) #5
  call void @llvm.lifetime.end.p0(i64 1, ptr %5) #5
  ret i8 %20
}

; Function Attrs: mustprogress uwtable
define linkonce_odr noundef i64 @_ZN7rocksdb13PerfStepTimer8time_nowEv(ptr noundef nonnull align 8 dereferenceable(40) %0) #3 comdat align 2 {
  %2 = alloca i64, align 8
  %3 = alloca ptr, align 8
  store ptr %0, ptr %3, align 8, !tbaa !50
  %4 = load ptr, ptr %3, align 8
  %5 = getelementptr inbounds nuw %"class.rocksdb::PerfStepTimer", ptr %4, i32 0, i32 1
  %6 = load i8, ptr %5, align 1, !tbaa !63, !range !61, !noundef !62
  %7 = trunc i8 %6 to i1
  br i1 %7, label %15, label %8

8:                                                ; preds = %1
  %9 = getelementptr inbounds nuw %"class.rocksdb::PerfStepTimer", ptr %4, i32 0, i32 3
  %10 = load ptr, ptr %9, align 8, !tbaa !65
  %11 = load ptr, ptr %10, align 8, !tbaa !93
  %12 = getelementptr inbounds ptr, ptr %11, i64 20
  %13 = load ptr, ptr %12, align 8
  %14 = call noundef i64 %13(ptr noundef nonnull align 8 dereferenceable(32) %10)
  store i64 %14, ptr %2, align 8
  br label %22

15:                                               ; preds = %1
  %16 = getelementptr inbounds nuw %"class.rocksdb::PerfStepTimer", ptr %4, i32 0, i32 3
  %17 = load ptr, ptr %16, align 8, !tbaa !65
  %18 = load ptr, ptr %17, align 8, !tbaa !93
  %19 = getelementptr inbounds ptr, ptr %18, i64 22
  %20 = load ptr, ptr %19, align 8
  %21 = call noundef i64 %20(ptr noundef nonnull align 8 dereferenceable(32) %17)
  store i64 %21, ptr %2, align 8
  br label %22

22:                                               ; preds = %15, %8
  %23 = load i64, ptr %2, align 8
  ret i64 %23
}

; Function Attrs: mustprogress nounwind uwtable
define linkonce_odr noundef ptr @_ZNKSt12__shared_ptrIN7rocksdb11SystemClockELN9__gnu_cxx12_Lock_policyE2EE3getEv(ptr noundef nonnull align 8 dereferenceable(16) %0) #2 comdat align 2 {
  %2 = alloca ptr, align 8
  store ptr %0, ptr %2, align 8, !tbaa !87
  %3 = load ptr, ptr %2, align 8
  %4 = getelementptr inbounds nuw %"class.std::__shared_ptr", ptr %3, i32 0, i32 0
  %5 = load ptr, ptr %4, align 8, !tbaa !89
  ret ptr %5
}

; Function Attrs: uwtable
define linkonce_odr hidden noundef ptr @_ZTWN7rocksdb10perf_levelE() #6 comdat {
  %1 = icmp ne ptr @_ZTHN7rocksdb10perf_levelE, null
  br i1 %1, label %2, label %3

2:                                                ; preds = %0
  call void @_ZTHN7rocksdb10perf_levelE()
  br label %3

3:                                                ; preds = %2, %0
  %4 = call align 1 ptr @llvm.threadlocal.address.p0(ptr align 1 @_ZN7rocksdb10perf_levelE)
  ret ptr %4
}

; Function Attrs: mustprogress nounwind uwtable
define linkonce_odr noundef zeroext i8 @_ZNK7rocksdb10Statistics15get_stats_levelEv(ptr noundef nonnull align 8 dereferenceable(33) %0) #2 comdat align 2 {
  %2 = alloca ptr, align 8
  store ptr %0, ptr %2, align 8, !tbaa !49
  %3 = load ptr, ptr %2, align 8
  %4 = getelementptr inbounds nuw %"class.rocksdb::Statistics", ptr %3, i32 0, i32 1
  %5 = call noundef zeroext i8 @_ZNKSt6atomicIN7rocksdb10StatsLevelEE4loadESt12memory_order(ptr noundef nonnull align 1 dereferenceable(1) %4, i32 noundef 0) #5
  ret i8 %5
}

; Function Attrs: mustprogress uwtable
define noundef zeroext i1 @_ZN7rocksdb19InstrumentedCondVar17TimedWaitInternalEm(ptr noundef nonnull align 8 dereferenceable(76) %0, i64 noundef %1) #3 align 2 {
  %3 = alloca ptr, align 8
  %4 = alloca i64, align 8
  store ptr %0, ptr %3, align 8, !tbaa !69
  store i64 %1, ptr %4, align 8, !tbaa !77
  %5 = load ptr, ptr %3, align 8
  %6 = getelementptr inbounds nuw %"class.rocksdb::InstrumentedCondVar", ptr %5, i32 0, i32 0
  %7 = load i64, ptr %4, align 8, !tbaa !77
  %8 = call noundef zeroext i1 @_ZN7rocksdb4port7CondVar9TimedWaitEm(ptr noundef nonnull align 8 dereferenceable(56) %6, i64 noundef %7)
  ret i1 %8
}

; Function Attrs: mustprogress uwtable
define linkonce_odr void @_ZN7rocksdb13PerfStepTimer5StartEv(ptr noundef nonnull align 8 dereferenceable(40) %0) #3 comdat align 2 {
  %2 = alloca ptr, align 8
  store ptr %0, ptr %2, align 8, !tbaa !50
  %3 = load ptr, ptr %2, align 8
  %4 = getelementptr inbounds nuw %"class.rocksdb::PerfStepTimer", ptr %3, i32 0, i32 0
  %5 = load i8, ptr %4, align 8, !tbaa !59, !range !61, !noundef !62
  %6 = trunc i8 %5 to i1
  br i1 %6, label %11, label %7

7:                                                ; preds = %1
  %8 = getelementptr inbounds nuw %"class.rocksdb::PerfStepTimer", ptr %3, i32 0, i32 6
  %9 = load ptr, ptr %8, align 8, !tbaa !68
  %10 = icmp ne ptr %9, null
  br i1 %10, label %11, label %14

11:                                               ; preds = %7, %1
  %12 = call noundef i64 @_ZN7rocksdb13PerfStepTimer8time_nowEv(ptr noundef nonnull align 8 dereferenceable(40) %3)
  %13 = getelementptr inbounds nuw %"class.rocksdb::PerfStepTimer", ptr %3, i32 0, i32 4
  store i64 %12, ptr %13, align 8, !tbaa !66
  br label %14

14:                                               ; preds = %11, %7
  ret void
}

; Function Attrs: mustprogress uwtable
define linkonce_odr void @_ZN7rocksdb13PerfStepTimerC2EPmPNS_11SystemClockEbNS_9PerfLevelEPNS_10StatisticsEj(ptr noundef nonnull align 8 dereferenceable(40) %0, ptr noundef %1, ptr noundef %2, i1 noundef zeroext %3, i8 noundef zeroext %4, ptr noundef %5, i32 noundef %6) unnamed_addr #3 comdat align 2 {
  %8 = alloca ptr, align 8
  %9 = alloca ptr, align 8
  %10 = alloca ptr, align 8
  %11 = alloca i8, align 1
  %12 = alloca i8, align 1
  %13 = alloca ptr, align 8
  %14 = alloca i32, align 4
  store ptr %0, ptr %8, align 8, !tbaa !50
  store ptr %1, ptr %9, align 8, !tbaa !52
  store ptr %2, ptr %10, align 8, !tbaa !48
  %15 = zext i1 %3 to i8
  store i8 %15, ptr %11, align 1, !tbaa !54
  store i8 %4, ptr %12, align 1, !tbaa !56
  store ptr %5, ptr %13, align 8, !tbaa !49
  store i32 %6, ptr %14, align 4, !tbaa !58
  %16 = load ptr, ptr %8, align 8
  %17 = getelementptr inbounds nuw %"class.rocksdb::PerfStepTimer", ptr %16, i32 0, i32 0
  %18 = call ptr @_ZTWN7rocksdb10perf_levelE()
  %19 = load i8, ptr %18, align 1, !tbaa !56
  %20 = zext i8 %19 to i32
  %21 = load i8, ptr %12, align 1, !tbaa !56
  %22 = zext i8 %21 to i32
  %23 = icmp sge i32 %20, %22
  %24 = zext i1 %23 to i8
  store i8 %24, ptr %17, align 8, !tbaa !59
  %25 = getelementptr inbounds nuw %"class.rocksdb::PerfStepTimer", ptr %16, i32 0, i32 1
  %26 = load i8, ptr %11, align 1, !tbaa !54, !range !61, !noundef !62
  %27 = trunc i8 %26 to i1
  %28 = zext i1 %27 to i8
  store i8 %28, ptr %25, align 1, !tbaa !63
  %29 = getelementptr inbounds nuw %"class.rocksdb::PerfStepTimer", ptr %16, i32 0, i32 2
  %30 = load i32, ptr %14, align 4, !tbaa !58
  store i32 %30, ptr %29, align 4, !tbaa !64
  %31 = getelementptr inbounds nuw %"class.rocksdb::PerfStepTimer", ptr %16, i32 0, i32 3
  %32 = getelementptr inbounds nuw %"class.rocksdb::PerfStepTimer", ptr %16, i32 0, i32 0
  %33 = load i8, ptr %32, align 8, !tbaa !59, !range !61, !noundef !62
  %34 = trunc i8 %33 to i1
  br i1 %34, label %38, label %35

35:                                               ; preds = %7
  %36 = load ptr, ptr %13, align 8, !tbaa !49
  %37 = icmp ne ptr %36, null
  br i1 %37, label %38, label %48

38:                                               ; preds = %35, %7
  %39 = load ptr, ptr %10, align 8, !tbaa !48
  %40 = icmp ne ptr %39, null
  br i1 %40, label %41, label %43

41:                                               ; preds = %38
  %42 = load ptr, ptr %10, align 8, !tbaa !48
  br label %46

43:                                               ; preds = %38
  %44 = call noundef nonnull align 8 dereferenceable(16) ptr @_ZN7rocksdb11SystemClock7DefaultEv()
  %45 = call noundef ptr @_ZNKSt12__shared_ptrIN7rocksdb11SystemClockELN9__gnu_cxx12_Lock_policyE2EE3getEv(ptr noundef nonnull align 8 dereferenceable(16) %44) #5
  br label %46

46:                                               ; preds = %43, %41
  %47 = phi ptr [ %42, %41 ], [ %45, %43 ]
  br label %49

48:                                               ; preds = %35
  br label %49

49:                                               ; preds = %48, %46
  %50 = phi ptr [ %47, %46 ], [ null, %48 ]
  store ptr %50, ptr %31, align 8, !tbaa !65
  %51 = getelementptr inbounds nuw %"class.rocksdb::PerfStepTimer", ptr %16, i32 0, i32 4
  store i64 0, ptr %51, align 8, !tbaa !66
  %52 = getelementptr inbounds nuw %"class.rocksdb::PerfStepTimer", ptr %16, i32 0, i32 5
  %53 = load ptr, ptr %9, align 8, !tbaa !52
  store ptr %53, ptr %52, align 8, !tbaa !67
  %54 = getelementptr inbounds nuw %"class.rocksdb::PerfStepTimer", ptr %16, i32 0, i32 6
  %55 = load ptr, ptr %13, align 8, !tbaa !49
  store ptr %55, ptr %54, align 8, !tbaa !68
  ret void
}

; Function Attrs: mustprogress uwtable
define internal noundef ptr @_ZN7rocksdb12_GLOBAL__N_116stats_for_reportEPNS_11SystemClockEPNS_10StatisticsE(ptr noundef %0, ptr noundef %1) #3 {
  %3 = alloca ptr, align 8
  %4 = alloca ptr, align 8
  %5 = alloca ptr, align 8
  store ptr %0, ptr %4, align 8, !tbaa !48
  store ptr %1, ptr %5, align 8, !tbaa !49
  %6 = load ptr, ptr %4, align 8, !tbaa !48
  %7 = icmp ne ptr %6, null
  br i1 %7, label %8, label %18

8:                                                ; preds = %2
  %9 = load ptr, ptr %5, align 8, !tbaa !49
  %10 = icmp ne ptr %9, null
  br i1 %10, label %11, label %18

11:                                               ; preds = %8
  %12 = load ptr, ptr %5, align 8, !tbaa !49
  %13 = call noundef zeroext i8 @_ZNK7rocksdb10Statistics15get_stats_levelEv(ptr noundef nonnull align 8 dereferenceable(33) %12)
  %14 = zext i8 %13 to i32
  %15 = icmp sgt i32 %14, 4
  br i1 %15, label %16, label %18

16:                                               ; preds = %11
  %17 = load ptr, ptr %5, align 8, !tbaa !49
  store ptr %17, ptr %3, align 8
  br label %19

18:                                               ; preds = %11, %8, %2
  store ptr null, ptr %3, align 8
  br label %19

19:                                               ; preds = %18, %16
  %20 = load ptr, ptr %3, align 8
  ret ptr %20
}

; Function Attrs: uwtable
define linkonce_odr hidden noundef ptr @_ZTWN7rocksdb12perf_contextE() #6 comdat {
  %1 = icmp ne ptr @_ZTHN7rocksdb12perf_contextE, null
  br i1 %1, label %2, label %3

2:                                                ; preds = %0
  call void @_ZTHN7rocksdb12perf_contextE()
  br label %3

3:                                                ; preds = %2, %0
  %4 = call align 8 ptr @llvm.threadlocal.address.p0(ptr align 8 @_ZN7rocksdb12perf_contextE)
  ret ptr %4
}

; Function Attrs: mustprogress uwtable
define noundef zeroext i1 @_ZN7rocksdb19InstrumentedCondVar9TimedWaitEm(ptr noundef nonnull align 8 dereferenceable(76) %0, i64 noundef %1) #3 align 2 personality ptr @__gxx_personality_v0 {
  %3 = alloca ptr, align 8
  %4 = alloca i64, align 8
  %5 = alloca %"class.rocksdb::PerfStepTimer", align 8
  %6 = alloca ptr, align 8
  %7 = alloca i32, align 4
  store ptr %0, ptr %3, align 8, !tbaa !69
  store i64 %1, ptr %4, align 8, !tbaa !77
  %8 = load ptr, ptr %3, align 8
  call void @llvm.lifetime.start.p0(i64 40, ptr %5) #5
  %9 = call ptr @_ZTWN7rocksdb12perf_contextE()
  %10 = getelementptr inbounds nuw %"struct.rocksdb::PerfContextBase", ptr %9, i32 0, i32 61
  %11 = getelementptr inbounds nuw %"class.rocksdb::InstrumentedCondVar", ptr %8, i32 0, i32 2
  %12 = load ptr, ptr %11, align 8, !tbaa !71
  %13 = getelementptr inbounds nuw %"class.rocksdb::InstrumentedCondVar", ptr %8, i32 0, i32 1
  %14 = load ptr, ptr %13, align 8, !tbaa !75
  %15 = call noundef ptr @_ZN7rocksdb12_GLOBAL__N_116stats_for_reportEPNS_11SystemClockEPNS_10StatisticsE(ptr noundef %12, ptr noundef %14)
  %16 = getelementptr inbounds nuw %"class.rocksdb::InstrumentedCondVar", ptr %8, i32 0, i32 3
  %17 = load i32, ptr %16, align 8, !tbaa !76
  call void @_ZN7rocksdb13PerfStepTimerC2EPmPNS_11SystemClockEbNS_9PerfLevelEPNS_10StatisticsEj(ptr noundef nonnull align 8 dereferenceable(40) %5, ptr noundef %10, ptr noundef null, i1 noundef zeroext false, i8 noundef zeroext 6, ptr noundef %15, i32 noundef %17)
  %18 = getelementptr inbounds nuw %"class.rocksdb::InstrumentedCondVar", ptr %8, i32 0, i32 3
  %19 = load i32, ptr %18, align 8, !tbaa !76
  %20 = icmp eq i32 %19, 76
  br i1 %20, label %21, label %27

21:                                               ; preds = %2
  invoke void @_ZN7rocksdb13PerfStepTimer5StartEv(ptr noundef nonnull align 8 dereferenceable(40) %5)
          to label %22 unwind label %23

22:                                               ; preds = %21
  br label %27

23:                                               ; preds = %27, %21
  %24 = landingpad { ptr, i32 }
          cleanup
  %25 = extractvalue { ptr, i32 } %24, 0
  store ptr %25, ptr %6, align 8
  %26 = extractvalue { ptr, i32 } %24, 1
  store i32 %26, ptr %7, align 4
  call void @_ZN7rocksdb13PerfStepTimerD2Ev(ptr noundef nonnull align 8 dereferenceable(40) %5) #5
  call void @llvm.lifetime.end.p0(i64 40, ptr %5) #5
  br label %31

27:                                               ; preds = %22, %2
  %28 = load i64, ptr %4, align 8, !tbaa !77
  %29 = invoke noundef zeroext i1 @_ZN7rocksdb19InstrumentedCondVar17TimedWaitInternalEm(ptr noundef nonnull align 8 dereferenceable(76) %8, i64 noundef %28)
          to label %30 unwind label %23

30:                                               ; preds = %27
  call void @_ZN7rocksdb13PerfStepTimerD2Ev(ptr noundef nonnull align 8 dereferenceable(40) %5) #5
  call void @llvm.lifetime.end.p0(i64 40, ptr %5) #5
  ret i1 %29

31:                                               ; preds = %23
  %32 = load ptr, ptr %6, align 8
  %33 = load i32, ptr %7, align 4
  %34 = insertvalue { ptr, i32 } poison, ptr %32, 0
  %35 = insertvalue { ptr, i32 } %34, i32 %33, 1
  resume { ptr, i32 } %35
}