; Function Attrs: uwtable
define noundef zeroext i1 @_ZN7rocksdb19InstrumentedCondVar9TimedWaitEm(ptr noundef nonnull align 8 dereferenceable(76) %0, i64 noundef %1) local_unnamed_addr #3 align 2 personality ptr @__gxx_personality_v0 {
  %3 = alloca %"class.rocksdb::PerfStepTimer", align 8
  call void @llvm.lifetime.start.p0(i64 40, ptr nonnull %3) #15
  %.not.i = icmp eq ptr @_ZTHN7rocksdb12perf_contextE, null
  br i1 %.not.i, label %_ZTWN7rocksdb12perf_contextE.exit, label %4

4:                                                ; preds = %2
  tail call void @_ZTHN7rocksdb12perf_contextE()
  br label %_ZTWN7rocksdb12perf_contextE.exit

_ZTWN7rocksdb12perf_contextE.exit:                ; preds = %2, %4
  %5 = tail call noundef align 8 ptr @llvm.threadlocal.address.p0(ptr align 8 @_ZN7rocksdb12perf_contextE)
  %6 = getelementptr inbounds nuw i8, ptr %5, i64 488
  %7 = getelementptr inbounds nuw i8, ptr %0, i64 64
  %8 = load ptr, ptr %7, align 8, !tbaa !43
  %9 = getelementptr inbounds nuw i8, ptr %0, i64 56
  %10 = load ptr, ptr %9, align 8, !tbaa !47
  %11 = icmp ne ptr %8, null
  %12 = icmp ne ptr %10, null
  %or.cond.i = and i1 %11, %12
  br i1 %or.cond.i, label %13, label %17

13:                                               ; preds = %_ZTWN7rocksdb12perf_contextE.exit
  %14 = getelementptr inbounds nuw i8, ptr %10, i64 32
  %15 = load atomic i8, ptr %14 monotonic, align 1
  %16 = icmp ugt i8 %15, 4
  br i1 %16, label %_ZN7rocksdb12_GLOBAL__N_116stats_for_reportEPNS_11SystemClockEPNS_10StatisticsE.exit, label %17

17:                                               ; preds = %13, %_ZTWN7rocksdb12perf_contextE.exit
  br label %_ZN7rocksdb12_GLOBAL__N_116stats_for_reportEPNS_11SystemClockEPNS_10StatisticsE.exit

_ZN7rocksdb12_GLOBAL__N_116stats_for_reportEPNS_11SystemClockEPNS_10StatisticsE.exit: ; preds = %13, %17
  %18 = phi ptr [ null, %17 ], [ %10, %13 ]
  %19 = getelementptr inbounds nuw i8, ptr %0, i64 72
  %20 = load i32, ptr %19, align 8, !tbaa !48
  %.not.i.i = icmp eq ptr @_ZTHN7rocksdb10perf_levelE, null
  br i1 %.not.i.i, label %_ZTWN7rocksdb10perf_levelE.exit.i, label %21

21:                                               ; preds = %_ZN7rocksdb12_GLOBAL__N_116stats_for_reportEPNS_11SystemClockEPNS_10StatisticsE.exit
  tail call void @_ZTHN7rocksdb10perf_levelE()
  br label %_ZTWN7rocksdb10perf_levelE.exit.i

_ZTWN7rocksdb10perf_levelE.exit.i:                ; preds = %21, %_ZN7rocksdb12_GLOBAL__N_116stats_for_reportEPNS_11SystemClockEPNS_10StatisticsE.exit
  %22 = tail call noundef align 1 ptr @llvm.threadlocal.address.p0(ptr align 1 @_ZN7rocksdb10perf_levelE)
  %23 = load i8, ptr %22, align 1, !tbaa !22
  %24 = icmp ugt i8 %23, 5
  %25 = zext i1 %24 to i8
  store i8 %25, ptr %3, align 8, !tbaa !24
  %26 = getelementptr inbounds nuw i8, ptr %3, i64 1
  store i8 0, ptr %26, align 1, !tbaa !28
  %27 = getelementptr inbounds nuw i8, ptr %3, i64 4
  store i32 %20, ptr %27, align 4, !tbaa !29
  %28 = icmp ne ptr %18, null
  %or.cond.i3 = or i1 %28, %24
  br i1 %or.cond.i3, label %29, label %_ZN7rocksdb13PerfStepTimerC2EPmPNS_11SystemClockEbNS_9PerfLevelEPNS_10StatisticsEj.exit

29:                                               ; preds = %_ZTWN7rocksdb10perf_levelE.exit.i
  %30 = tail call noundef nonnull align 8 dereferenceable(16) ptr @_ZN7rocksdb11SystemClock7DefaultEv()
  %31 = load ptr, ptr %30, align 8, !tbaa !30
  br label %_ZN7rocksdb13PerfStepTimerC2EPmPNS_11SystemClockEbNS_9PerfLevelEPNS_10StatisticsEj.exit

_ZN7rocksdb13PerfStepTimerC2EPmPNS_11SystemClockEbNS_9PerfLevelEPNS_10StatisticsEj.exit: ; preds = %_ZTWN7rocksdb10perf_levelE.exit.i, %29
  %32 = phi ptr [ %31, %29 ], [ null, %_ZTWN7rocksdb10perf_levelE.exit.i ]
  %33 = getelementptr inbounds nuw i8, ptr %3, i64 8
  store ptr %32, ptr %33, align 8, !tbaa !34
  %34 = getelementptr inbounds nuw i8, ptr %3, i64 16
  store i64 0, ptr %34, align 8, !tbaa !35
  %35 = getelementptr inbounds nuw i8, ptr %3, i64 24
  store ptr %6, ptr %35, align 8, !tbaa !36
  %36 = getelementptr inbounds nuw i8, ptr %3, i64 32
  store ptr %18, ptr %36, align 8, !tbaa !37
  %37 = load i32, ptr %19, align 8, !tbaa !48
  %38 = icmp eq i32 %37, 76
  %or.cond = and i1 %38, %or.cond.i3
  br i1 %or.cond, label %39, label %_ZN7rocksdb13PerfStepTimer5StartEv.exit

39:                                               ; preds = %_ZN7rocksdb13PerfStepTimerC2EPmPNS_11SystemClockEbNS_9PerfLevelEPNS_10StatisticsEj.exit
  %40 = load ptr, ptr %32, align 8, !tbaa !38
  %41 = getelementptr inbounds nuw i8, ptr %40, i64 160
  %42 = load ptr, ptr %41, align 8
  %43 = invoke noundef i64 %42(ptr noundef nonnull align 8 dereferenceable(32) %32)
          to label %.noexc unwind label %44

.noexc:                                           ; preds = %39
  store i64 %43, ptr %34, align 8, !tbaa !35
  br label %_ZN7rocksdb13PerfStepTimer5StartEv.exit

44:                                               ; preds = %_ZN7rocksdb13PerfStepTimer5StartEv.exit, %39
  %45 = landingpad { ptr, i32 }
          cleanup
  call void @_ZN7rocksdb13PerfStepTimerD2Ev(ptr noundef nonnull align 8 dereferenceable(40) %3) #15
  call void @llvm.lifetime.end.p0(i64 40, ptr nonnull %3) #15
  resume { ptr, i32 } %45

_ZN7rocksdb13PerfStepTimer5StartEv.exit:          ; preds = %.noexc, %_ZN7rocksdb13PerfStepTimerC2EPmPNS_11SystemClockEbNS_9PerfLevelEPNS_10StatisticsEj.exit
  %46 = phi i64 [ %43, %.noexc ], [ 0, %_ZN7rocksdb13PerfStepTimerC2EPmPNS_11SystemClockEbNS_9PerfLevelEPNS_10StatisticsEj.exit ]
  %47 = invoke noundef zeroext i1 @_ZN7rocksdb4port7CondVar9TimedWaitEm(ptr noundef nonnull align 8 dereferenceable(76) %0, i64 noundef %1)
          to label %_ZN7rocksdb19InstrumentedCondVar17TimedWaitInternalEm.exit unwind label %44

_ZN7rocksdb19InstrumentedCondVar17TimedWaitInternalEm.exit: ; preds = %_ZN7rocksdb13PerfStepTimer5StartEv.exit
  %.not.i.i6 = icmp eq i64 %46, 0
  br i1 %.not.i.i6, label %_ZN7rocksdb13PerfStepTimerD2Ev.exit, label %48

48:                                               ; preds = %_ZN7rocksdb19InstrumentedCondVar17TimedWaitInternalEm.exit
  %49 = load ptr, ptr %32, align 8, !tbaa !38
  %50 = getelementptr inbounds nuw i8, ptr %49, i64 160
  %51 = load ptr, ptr %50, align 8
  %52 = invoke noundef i64 %51(ptr noundef nonnull align 8 dereferenceable(32) %32)
          to label %.noexc.i unwind label %61

.noexc.i:                                         ; preds = %48
  %53 = sub i64 %52, %46
  br i1 %24, label %54, label %57

54:                                               ; preds = %.noexc.i
  %55 = load i64, ptr %6, align 8, !tbaa !40
  %56 = add i64 %55, %53
  store i64 %56, ptr %6, align 8, !tbaa !40
  br label %57

57:                                               ; preds = %54, %.noexc.i
  %.not2.i.i = icmp eq ptr %18, null
  br i1 %.not2.i.i, label %_ZN7rocksdb13PerfStepTimerD2Ev.exit, label %_ZN7rocksdb10RecordTickEPNS_10StatisticsEjm.exit.i.i

_ZN7rocksdb10RecordTickEPNS_10StatisticsEjm.exit.i.i: ; preds = %57
  %58 = load ptr, ptr %18, align 8, !tbaa !38
  %59 = getelementptr inbounds nuw i8, ptr %58, i64 176
  %60 = load ptr, ptr %59, align 8
  invoke void %60(ptr noundef nonnull align 8 dereferenceable(33) %18, i32 noundef %20, i64 noundef %53)
          to label %_ZN7rocksdb13PerfStepTimerD2Ev.exit unwind label %61

61:                                               ; preds = %_ZN7rocksdb10RecordTickEPNS_10StatisticsEjm.exit.i.i, %48
  %62 = landingpad { ptr, i32 }
          catch ptr null
  %63 = extractvalue { ptr, i32 } %62, 0
  tail call void @__clang_call_terminate(ptr %63) #16
  unreachable

_ZN7rocksdb13PerfStepTimerD2Ev.exit:              ; preds = %57, %_ZN7rocksdb10RecordTickEPNS_10StatisticsEjm.exit.i.i, %_ZN7rocksdb19InstrumentedCondVar17TimedWaitInternalEm.exit
  call void @llvm.lifetime.end.p0(i64 40, ptr nonnull %3) #15
  ret i1 %47
}